target datalayout = "e-m:e-p270:32:32-p271:32:32-p272:64:64-i64:64-i128:128-f80:128-n8:16:32:64-S128"
target triple = "x86_64-pc-linux-gnu"

%struct.uv__queue = type { ptr, ptr }
%struct.uv__io_s = type { ptr, %struct.uv__queue, %struct.uv__queue, i32, i32, i32 }
%struct.uv_stream_s = type { ptr, ptr, i32, ptr, %struct.uv__queue, %union.anon, ptr, i32, i64, ptr, ptr, ptr, ptr, %struct.uv__io_s, %struct.uv__queue, %struct.uv__queue, ptr, i32, i32, ptr }
%union.anon = type { [4 x ptr] }
%struct.uv_buf_t = type { ptr, i64 }
%struct.uv_write_s = type { ptr, i32, [6 x ptr], ptr, ptr, ptr, %struct.uv__queue, i32, ptr, i32, i32, [4 x %struct.uv_buf_t] }

; Function Attrs: inlinehint nounwind uwtable
define internal void @uv__queue_insert_tail(ptr noundef %0, ptr noundef %1) #2 {
  %3 = alloca ptr, align 8
  %4 = alloca ptr, align 8
  store ptr %0, ptr %3, align 8
  store ptr %1, ptr %4, align 8
  %5 = load ptr, ptr %3, align 8
  %6 = load ptr, ptr %4, align 8
  %7 = getelementptr inbounds nuw %struct.uv__queue, ptr %6, i32 0, i32 0
  store ptr %5, ptr %7, align 8
  %8 = load ptr, ptr %3, align 8
  %9 = getelementptr inbounds nuw %struct.uv__queue, ptr %8, i32 0, i32 1
  %10 = load ptr, ptr %9, align 8
  %11 = load ptr, ptr %4, align 8
  %12 = getelementptr inbounds nuw %struct.uv__queue, ptr %11, i32 0, i32 1
  store ptr %10, ptr %12, align 8
  %13 = load ptr, ptr %4, align 8
  %14 = load ptr, ptr %4, align 8
  %15 = getelementptr inbounds nuw %struct.uv__queue, ptr %14, i32 0, i32 1
  %16 = load ptr, ptr %15, align 8
  %17 = getelementptr inbounds nuw %struct.uv__queue, ptr %16, i32 0, i32 0
  store ptr %13, ptr %17, align 8
  %18 = load ptr, ptr %4, align 8
  %19 = load ptr, ptr %3, align 8
  %20 = getelementptr inbounds nuw %struct.uv__queue, ptr %19, i32 0, i32 1
  store ptr %18, ptr %20, align 8
  ret void
}

; Function Attrs: inlinehint nounwind uwtable
define internal void @uv__queue_remove(ptr noundef %0) #2 {
  %2 = alloca ptr, align 8
  store ptr %0, ptr %2, align 8
  %3 = load ptr, ptr %2, align 8
  %4 = getelementptr inbounds nuw %struct.uv__queue, ptr %3, i32 0, i32 0
  %5 = load ptr, ptr %4, align 8
  %6 = load ptr, ptr %2, align 8
  %7 = getelementptr inbounds nuw %struct.uv__queue, ptr %6, i32 0, i32 1
  %8 = load ptr, ptr %7, align 8
  %9 = getelementptr inbounds nuw %struct.uv__queue, ptr %8, i32 0, i32 0
  store ptr %5, ptr %9, align 8
  %10 = load ptr, ptr %2, align 8
  %11 = getelementptr inbounds nuw %struct.uv__queue, ptr %10, i32 0, i32 1
  %12 = load ptr, ptr %11, align 8
  %13 = load ptr, ptr %2, align 8
  %14 = getelementptr inbounds nuw %struct.uv__queue, ptr %13, i32 0, i32 0
  %15 = load ptr, ptr %14, align 8
  %16 = getelementptr inbounds nuw %struct.uv__queue, ptr %15, i32 0, i32 1
  store ptr %12, ptr %16, align 8
  ret void
}

; Function Attrs: nounwind uwtable
define internal void @uv__stream_osx_interrupt_select(ptr noundef %0) #0 {
  %2 = alloca ptr, align 8
  store ptr %0, ptr %2, align 8
  ret void
}

; Function Attrs: nounwind uwtable
define internal void @uv__write_req_finish(ptr noundef %0) #0 {
  %2 = alloca ptr, align 8
  %3 = alloca ptr, align 8
  store ptr %0, ptr %2, align 8
  call void @llvm.lifetime.start.p0(i64 8, ptr %3) #8
  %4 = load ptr, ptr %2, align 8
  %5 = getelementptr inbounds nuw %struct.uv_write_s, ptr %4, i32 0, i32 5
  %6 = load ptr, ptr %5, align 8
  store ptr %6, ptr %3, align 8
  %7 = load ptr, ptr %2, align 8
  %8 = getelementptr inbounds nuw %struct.uv_write_s, ptr %7, i32 0, i32 6
  call void @uv__queue_remove(ptr noundef %8)
  %9 = load ptr, ptr %2, align 8
  %10 = getelementptr inbounds nuw %struct.uv_write_s, ptr %9, i32 0, i32 10
  %11 = load i32, ptr %10, align 4
  %12 = icmp eq i32 %11, 0
  br i1 %12, label %13, label %28

13:                                               ; preds = %1
  %14 = load ptr, ptr %2, align 8
  %15 = getelementptr inbounds nuw %struct.uv_write_s, ptr %14, i32 0, i32 8
  %16 = load ptr, ptr %15, align 8
  %17 = load ptr, ptr %2, align 8
  %18 = getelementptr inbounds nuw %struct.uv_write_s, ptr %17, i32 0, i32 11
  %19 = getelementptr inbounds [4 x %struct.uv_buf_t], ptr %18, i64 0, i64 0
  %20 = icmp ne ptr %16, %19
  br i1 %20, label %21, label %25

21:                                               ; preds = %13
  %22 = load ptr, ptr %2, align 8
  %23 = getelementptr inbounds nuw %struct.uv_write_s, ptr %22, i32 0, i32 8
  %24 = load ptr, ptr %23, align 8
  call void @uv__free(ptr noundef %24)
  br label %25

25:                                               ; preds = %21, %13
  %26 = load ptr, ptr %2, align 8
  %27 = getelementptr inbounds nuw %struct.uv_write_s, ptr %26, i32 0, i32 8
  store ptr null, ptr %27, align 8
  br label %28

28:                                               ; preds = %25, %1
  %29 = load ptr, ptr %3, align 8
  %30 = getelementptr inbounds nuw %struct.uv_stream_s, ptr %29, i32 0, i32 15
  %31 = load ptr, ptr %2, align 8
  %32 = getelementptr inbounds nuw %struct.uv_write_s, ptr %31, i32 0, i32 6
  call void @uv__queue_insert_tail(ptr noundef %30, ptr noundef %32)
  %33 = load ptr, ptr %3, align 8
  %34 = getelementptr inbounds nuw %struct.uv_stream_s, ptr %33, i32 0, i32 1
  %35 = load ptr, ptr %34, align 8
  %36 = load ptr, ptr %3, align 8
  %37 = getelementptr inbounds nuw %struct.uv_stream_s, ptr %36, i32 0, i32 13
  call void @uv__io_feed(ptr noundef %35, ptr noundef %37)
  call void @llvm.lifetime.end.p0(i64 8, ptr %3) #8
  ret void
}

; Function Attrs: nounwind uwtable
define internal i32 @uv__write_req_update(ptr noundef %0, ptr noundef %1, i64 noundef %2) #0 {
  %4 = alloca ptr, align 8
  %5 = alloca ptr, align 8
  %6 = alloca i64, align 8
  %7 = alloca ptr, align 8
  %8 = alloca i64, align 8
  store ptr %0, ptr %4, align 8
  store ptr %1, ptr %5, align 8
  store i64 %2, ptr %6, align 8
  call void @llvm.lifetime.start.p0(i64 8, ptr %7) #8
  call void @llvm.lifetime.start.p0(i64 8, ptr %8) #8
  %9 = load i64, ptr %6, align 8
  %10 = load ptr, ptr %4, align 8
  %11 = getelementptr inbounds nuw %struct.uv_stream_s, ptr %10, i32 0, i32 8
  %12 = load i64, ptr %11, align 8
  %13 = sub i64 %12, %9
  store i64 %13, ptr %11, align 8
  %14 = load ptr, ptr %5, align 8
  %15 = getelementptr inbounds nuw %struct.uv_write_s, ptr %14, i32 0, i32 8
  %16 = load ptr, ptr %15, align 8
  %17 = load ptr, ptr %5, align 8
  %18 = getelementptr inbounds nuw %struct.uv_write_s, ptr %17, i32 0, i32 7
  %19 = load i32, ptr %18, align 8
  %20 = zext i32 %19 to i64
  %21 = getelementptr inbounds nuw %struct.uv_buf_t, ptr %16, i64 %20
  store ptr %21, ptr %7, align 8
  br label %22

22:                                               ; preds = %63, %3
  %23 = load i64, ptr %6, align 8
  %24 = load ptr, ptr %7, align 8
  %25 = getelementptr inbounds nuw %struct.uv_buf_t, ptr %24, i32 0, i32 1
  %26 = load i64, ptr %25, align 8
  %27 = icmp ult i64 %23, %26
  br i1 %27, label %28, label %30

28:                                               ; preds = %22
  %29 = load i64, ptr %6, align 8
  br label %34

30:                                               ; preds = %22
  %31 = load ptr, ptr %7, align 8
  %32 = getelementptr inbounds nuw %struct.uv_buf_t, ptr %31, i32 0, i32 1
  %33 = load i64, ptr %32, align 8
  br label %34

34:                                               ; preds = %30, %28
  %35 = phi i64 [ %29, %28 ], [ %33, %30 ]
  store i64 %35, ptr %8, align 8
  %36 = load ptr, ptr %7, align 8
  %37 = getelementptr inbounds nuw %struct.uv_buf_t, ptr %36, i32 0, i32 1
  %38 = load i64, ptr %37, align 8
  %39 = icmp ne i64 %38, 0
  br i1 %39, label %40, label %46

40:                                               ; preds = %34
  %41 = load i64, ptr %8, align 8
  %42 = load ptr, ptr %7, align 8
  %43 = getelementptr inbounds nuw %struct.uv_buf_t, ptr %42, i32 0, i32 0
  %44 = load ptr, ptr %43, align 8
  %45 = getelementptr inbounds nuw i8, ptr %44, i64 %41
  store ptr %45, ptr %43, align 8
  br label %46

46:                                               ; preds = %40, %34
  %47 = load i64, ptr %8, align 8
  %48 = load ptr, ptr %7, align 8
  %49 = getelementptr inbounds nuw %struct.uv_buf_t, ptr %48, i32 0, i32 1
  %50 = load i64, ptr %49, align 8
  %51 = sub i64 %50, %47
  store i64 %51, ptr %49, align 8
  %52 = load ptr, ptr %7, align 8
  %53 = getelementptr inbounds nuw %struct.uv_buf_t, ptr %52, i32 0, i32 1
  %54 = load i64, ptr %53, align 8
  %55 = icmp eq i64 %54, 0
  %56 = zext i1 %55 to i32
  %57 = load ptr, ptr %7, align 8
  %58 = sext i32 %56 to i64
  %59 = getelementptr inbounds %struct.uv_buf_t, ptr %57, i64 %58
  store ptr %59, ptr %7, align 8
  %60 = load i64, ptr %8, align 8
  %61 = load i64, ptr %6, align 8
  %62 = sub i64 %61, %60
  store i64 %62, ptr %6, align 8
  br label %63

63:                                               ; preds = %46
  %64 = load i64, ptr %6, align 8
  %65 = icmp ugt i64 %64, 0
  br i1 %65, label %22, label %66

66:                                               ; preds = %63
  %67 = load ptr, ptr %7, align 8
  %68 = load ptr, ptr %5, align 8
  %69 = getelementptr inbounds nuw %struct.uv_write_s, ptr %68, i32 0, i32 8
  %70 = load ptr, ptr %69, align 8
  %71 = ptrtoint ptr %67 to i64
  %72 = ptrtoint ptr %70 to i64
  %73 = sub i64 %71, %72
  %74 = sdiv exact i64 %73, 16
  %75 = trunc i64 %74 to i32
  %76 = load ptr, ptr %5, align 8
  %77 = getelementptr inbounds nuw %struct.uv_write_s, ptr %76, i32 0, i32 7
  store i32 %75, ptr %77, align 8
  %78 = load ptr, ptr %5, align 8
  %79 = getelementptr inbounds nuw %struct.uv_write_s, ptr %78, i32 0, i32 7
  %80 = load i32, ptr %79, align 8
  %81 = load ptr, ptr %5, align 8
  %82 = getelementptr inbounds nuw %struct.uv_write_s, ptr %81, i32 0, i32 9
  %83 = load i32, ptr %82, align 8
  %84 = icmp eq i32 %80, %83
  %85 = zext i1 %84 to i32
  call void @llvm.lifetime.end.p0(i64 8, ptr %8) #8
  call void @llvm.lifetime.end.p0(i64 8, ptr %7) #8
  ret i32 %85
}

; Function Attrs: inlinehint nounwind uwtable
define internal ptr @uv__queue_head(ptr noundef %0) #2 {
  %2 = alloca ptr, align 8
  store ptr %0, ptr %2, align 8
  %3 = load ptr, ptr %2, align 8
  %4 = getelementptr inbounds nuw %struct.uv__queue, ptr %3, i32 0, i32 0
  %5 = load ptr, ptr %4, align 8
  ret ptr %5
}

; Function Attrs: inlinehint nounwind uwtable
define internal i32 @uv__queue_empty(ptr noundef %0) #2 {
  %2 = alloca ptr, align 8
  store ptr %0, ptr %2, align 8
  %3 = load ptr, ptr %2, align 8
  %4 = load ptr, ptr %2, align 8
  %5 = getelementptr inbounds nuw %struct.uv__queue, ptr %4, i32 0, i32 0
  %6 = load ptr, ptr %5, align 8
  %7 = icmp eq ptr %3, %6
  %8 = zext i1 %7 to i32
  ret i32 %8
}

; Function Attrs: nounwind uwtable
define internal void @uv__write(ptr noundef %0) #0 {
  %2 = alloca ptr, align 8
  %3 = alloca ptr, align 8
  %4 = alloca ptr, align 8
  %5 = alloca i64, align 8
  %6 = alloca i32, align 4
  %7 = alloca i32, align 4
  store ptr %0, ptr %2, align 8
  call void @llvm.lifetime.start.p0(i64 8, ptr %3) #8
  call void @llvm.lifetime.start.p0(i64 8, ptr %4) #8
  call void @llvm.lifetime.start.p0(i64 8, ptr %5) #8
  call void @llvm.lifetime.start.p0(i64 4, ptr %6) #8
  store i32 32, ptr %6, align 4
  br label %8

8:                                                ; preds = %70, %56, %1
  %9 = load ptr, ptr %2, align 8
  %10 = getelementptr inbounds nuw %struct.uv_stream_s, ptr %9, i32 0, i32 14
  %11 = call i32 @uv__queue_empty(ptr noundef %10)
  %12 = icmp ne i32 %11, 0
  br i1 %12, label %13, label %14

13:                                               ; preds = %8
  store i32 1, ptr %7, align 4
  br label %90

14:                                               ; preds = %8
  %15 = load ptr, ptr %2, align 8
  %16 = getelementptr inbounds nuw %struct.uv_stream_s, ptr %15, i32 0, i32 14
  %17 = call ptr @uv__queue_head(ptr noundef %16)
  store ptr %17, ptr %3, align 8
  %18 = load ptr, ptr %3, align 8
  %19 = getelementptr inbounds i8, ptr %18, i64 -88
  store ptr %19, ptr %4, align 8
  %20 = load ptr, ptr %2, align 8
  %21 = load ptr, ptr %4, align 8
  %22 = getelementptr inbounds nuw %struct.uv_write_s, ptr %21, i32 0, i32 8
  %23 = load ptr, ptr %22, align 8
  %24 = load ptr, ptr %4, align 8
  %25 = getelementptr inbounds nuw %struct.uv_write_s, ptr %24, i32 0, i32 7
  %26 = load i32, ptr %25, align 8
  %27 = zext i32 %26 to i64
  %28 = getelementptr inbounds nuw %struct.uv_buf_t, ptr %23, i64 %27
  %29 = load ptr, ptr %4, align 8
  %30 = getelementptr inbounds nuw %struct.uv_write_s, ptr %29, i32 0, i32 9
  %31 = load i32, ptr %30, align 8
  %32 = load ptr, ptr %4, align 8
  %33 = getelementptr inbounds nuw %struct.uv_write_s, ptr %32, i32 0, i32 7
  %34 = load i32, ptr %33, align 8
  %35 = sub i32 %31, %34
  %36 = load ptr, ptr %4, align 8
  %37 = getelementptr inbounds nuw %struct.uv_write_s, ptr %36, i32 0, i32 4
  %38 = load ptr, ptr %37, align 8
  %39 = call i32 @uv__try_write(ptr noundef %20, ptr noundef %28, i32 noundef %35, ptr noundef %38)
  %40 = sext i32 %39 to i64
  store i64 %40, ptr %5, align 8
  %41 = load i64, ptr %5, align 8
  %42 = icmp sge i64 %41, 0
  br i1 %42, label %43, label %59

43:                                               ; preds = %14
  %44 = load ptr, ptr %4, align 8
  %45 = getelementptr inbounds nuw %struct.uv_write_s, ptr %44, i32 0, i32 4
  store ptr null, ptr %45, align 8
  %46 = load ptr, ptr %2, align 8
  %47 = load ptr, ptr %4, align 8
  %48 = load i64, ptr %5, align 8
  %49 = call i32 @uv__write_req_update(ptr noundef %46, ptr noundef %47, i64 noundef %48)
  %50 = icmp ne i32 %49, 0
  br i1 %50, label %51, label %58

51:                                               ; preds = %43
  %52 = load ptr, ptr %4, align 8
  call void @uv__write_req_finish(ptr noundef %52)
  %53 = load i32, ptr %6, align 4
  %54 = add nsw i32 %53, -1
  store i32 %54, ptr %6, align 4
  %55 = icmp sgt i32 %53, 0
  br i1 %55, label %56, label %57

56:                                               ; preds = %51
  br label %8

57:                                               ; preds = %51
  store i32 1, ptr %7, align 4
  br label %90

58:                                               ; preds = %43
  br label %64

59:                                               ; preds = %14
  %60 = load i64, ptr %5, align 8
  %61 = icmp ne i64 %60, -11
  br i1 %61, label %62, label %63

62:                                               ; preds = %59
  br label %78

63:                                               ; preds = %59
  br label %64

64:                                               ; preds = %63, %58
  %65 = load ptr, ptr %2, align 8
  %66 = getelementptr inbounds nuw %struct.uv_stream_s, ptr %65, i32 0, i32 7
  %67 = load i32, ptr %66, align 8
  %68 = and i32 %67, 1048576
  %69 = icmp ne i32 %68, 0
  br i1 %69, label %70, label %71

70:                                               ; preds = %64
  br label %8

71:                                               ; preds = %64
  %72 = load ptr, ptr %2, align 8
  %73 = getelementptr inbounds nuw %struct.uv_stream_s, ptr %72, i32 0, i32 1
  %74 = load ptr, ptr %73, align 8
  %75 = load ptr, ptr %2, align 8
  %76 = getelementptr inbounds nuw %struct.uv_stream_s, ptr %75, i32 0, i32 13
  call void @uv__io_start(ptr noundef %74, ptr noundef %76, i32 noundef 4)
  %77 = load ptr, ptr %2, align 8
  call void @uv__stream_osx_interrupt_select(ptr noundef %77)
  store i32 1, ptr %7, align 4
  br label %90

78:                                               ; preds = %62
  %79 = load i64, ptr %5, align 8
  %80 = trunc i64 %79 to i32
  %81 = load ptr, ptr %4, align 8
  %82 = getelementptr inbounds nuw %struct.uv_write_s, ptr %81, i32 0, i32 10
  store i32 %80, ptr %82, align 4
  %83 = load ptr, ptr %4, align 8
  call void @uv__write_req_finish(ptr noundef %83)
  %84 = load ptr, ptr %2, align 8
  %85 = getelementptr inbounds nuw %struct.uv_stream_s, ptr %84, i32 0, i32 1
  %86 = load ptr, ptr %85, align 8
  %87 = load ptr, ptr %2, align 8
  %88 = getelementptr inbounds nuw %struct.uv_stream_s, ptr %87, i32 0, i32 13
  call void @uv__io_stop(ptr noundef %86, ptr noundef %88, i32 noundef 4)
  %89 = load ptr, ptr %2, align 8
  call void @uv__stream_osx_interrupt_select(ptr noundef %89)
  store i32 0, ptr %7, align 4
  br label %90

90:                                               ; preds = %78, %71, %57, %13
  call void @llvm.lifetime.end.p0(i64 4, ptr %6) #8
  call void @llvm.lifetime.end.p0(i64 8, ptr %5) #8
  call void @llvm.lifetime.end.p0(i64 8, ptr %4) #8
  call void @llvm.lifetime.end.p0(i64 8, ptr %3) #8
  %91 = load i32, ptr %7, align 4
  switch i32 %91, label %93 [
    i32 0, label %92
    i32 1, label %92
  ]

92:                                               ; preds = %90, %90
  ret void

93:                                               ; preds = %90
  unreachable
}