; Function Attrs: nounwind uwtable
define internal fastcc void @uv__write(ptr noundef %0) unnamed_addr #0 {
  %2 = getelementptr inbounds nuw i8, ptr %0, i64 192
  %3 = getelementptr inbounds nuw i8, ptr %0, i64 96
  %4 = getelementptr inbounds nuw i8, ptr %0, i64 88
  br label %.outer

.outer:                                           ; preds = %uv__write_req_finish.exit, %1
  %.0.ph = phi i32 [ %70, %uv__write_req_finish.exit ], [ 32, %1 ]
  br label %5

5:                                                ; preds = %.outer, %72
  %6 = load ptr, ptr %2, align 8
  %.not = icmp eq ptr %2, %6
  br i1 %.not, label %.loopexit, label %7

7:                                                ; preds = %5
  %8 = getelementptr inbounds nuw i8, ptr %6, i64 24
  %9 = load ptr, ptr %8, align 8
  %10 = getelementptr inbounds nuw i8, ptr %6, i64 16
  %11 = load i32, ptr %10, align 8
  %12 = zext i32 %11 to i64
  %13 = getelementptr inbounds nuw %struct.uv_buf_t, ptr %9, i64 %12
  %14 = getelementptr inbounds nuw i8, ptr %6, i64 32
  %15 = load i32, ptr %14, align 8
  %16 = sub i32 %15, %11
  %17 = getelementptr inbounds i8, ptr %6, i64 -16
  %18 = load ptr, ptr %17, align 8
  %19 = tail call fastcc i32 @uv__try_write(ptr noundef nonnull %0, ptr noundef %13, i32 noundef %16, ptr noundef %18)
  %20 = icmp sgt i32 %19, -1
  br i1 %20, label %21, label %71

21:                                               ; preds = %7
  %22 = zext nneg i32 %19 to i64
  store ptr null, ptr %17, align 8
  %23 = load i64, ptr %3, align 8
  %24 = sub i64 %23, %22
  store i64 %24, ptr %3, align 8
  %25 = load ptr, ptr %8, align 8
  %26 = load i32, ptr %10, align 8
  %27 = zext i32 %26 to i64
  %28 = getelementptr inbounds nuw %struct.uv_buf_t, ptr %25, i64 %27
  br label %29

29:                                               ; preds = %35, %21
  %.022.i = phi ptr [ %28, %21 ], [ %39, %35 ]
  %.0.i = phi i64 [ %22, %21 ], [ %40, %35 ]
  %30 = getelementptr inbounds nuw i8, ptr %.022.i, i64 8
  %31 = load i64, ptr %30, align 8
  %.0..i = tail call i64 @llvm.umin.i64(i64 %.0.i, i64 %31)
  %.not.i = icmp eq i64 %31, 0
  br i1 %.not.i, label %35, label %32

32:                                               ; preds = %29
  %33 = load ptr, ptr %.022.i, align 8
  %34 = getelementptr inbounds nuw i8, ptr %33, i64 %.0..i
  store ptr %34, ptr %.022.i, align 8
  br label %35

35:                                               ; preds = %32, %29
  %36 = sub i64 %31, %.0..i
  store i64 %36, ptr %30, align 8
  %37 = icmp ule i64 %31, %.0.i
  %38 = zext i1 %37 to i64
  %39 = getelementptr inbounds nuw %struct.uv_buf_t, ptr %.022.i, i64 %38
  %40 = sub i64 %.0.i, %.0..i
  %.not25.i = icmp eq i64 %40, 0
  br i1 %.not25.i, label %uv__write_req_update.exit, label %29

uv__write_req_update.exit:                        ; preds = %35
  %41 = load ptr, ptr %8, align 8
  %42 = ptrtoint ptr %39 to i64
  %43 = ptrtoint ptr %41 to i64
  %44 = sub i64 %42, %43
  %45 = lshr exact i64 %44, 4
  %46 = trunc i64 %45 to i32
  store i32 %46, ptr %10, align 8
  %47 = load i32, ptr %14, align 8
  %.not33 = icmp eq i32 %47, %46
  br i1 %.not33, label %48, label %72

48:                                               ; preds = %uv__write_req_update.exit
  %49 = getelementptr inbounds i8, ptr %6, i64 -8
  %50 = load ptr, ptr %49, align 8
  %51 = load ptr, ptr %6, align 8
  %52 = getelementptr inbounds nuw i8, ptr %6, i64 8
  %53 = load ptr, ptr %52, align 8
  store ptr %51, ptr %53, align 8
  %54 = load ptr, ptr %52, align 8
  %55 = getelementptr inbounds nuw i8, ptr %51, i64 8
  store ptr %54, ptr %55, align 8
  %56 = getelementptr inbounds nuw i8, ptr %6, i64 36
  %57 = load i32, ptr %56, align 4
  %58 = icmp eq i32 %57, 0
  br i1 %58, label %59, label %uv__write_req_finish.exit

59:                                               ; preds = %48
  %60 = load ptr, ptr %8, align 8
  %61 = getelementptr inbounds nuw i8, ptr %6, i64 40
  %.not.i30 = icmp eq ptr %60, %61
  br i1 %.not.i30, label %63, label %62

62:                                               ; preds = %59
  tail call void @uv__free(ptr noundef %60) #12
  br label %63

63:                                               ; preds = %62, %59
  store ptr null, ptr %8, align 8
  br label %uv__write_req_finish.exit

uv__write_req_finish.exit:                        ; preds = %48, %63
  %64 = getelementptr inbounds nuw i8, ptr %50, i64 208
  store ptr %64, ptr %6, align 8
  %65 = getelementptr inbounds nuw i8, ptr %50, i64 216
  %66 = load ptr, ptr %65, align 8
  store ptr %66, ptr %52, align 8
  store ptr %6, ptr %66, align 8
  store ptr %6, ptr %65, align 8
  %67 = getelementptr inbounds nuw i8, ptr %50, i64 8
  %68 = load ptr, ptr %67, align 8
  %69 = getelementptr inbounds nuw i8, ptr %50, i64 136
  tail call void @uv__io_feed(ptr noundef %68, ptr noundef nonnull %69) #12
  %70 = add nsw i32 %.0.ph, -1
  %.not52 = icmp eq i32 %.0.ph, 0
  br i1 %.not52, label %.loopexit, label %.outer

71:                                               ; preds = %7
  %.not27 = icmp eq i32 %19, -11
  br i1 %.not27, label %72, label %79

72:                                               ; preds = %71, %uv__write_req_update.exit
  %73 = load i32, ptr %4, align 8
  %74 = and i32 %73, 1048576
  %.not29 = icmp eq i32 %74, 0
  br i1 %.not29, label %75, label %5

75:                                               ; preds = %72
  %76 = getelementptr inbounds nuw i8, ptr %0, i64 8
  %77 = load ptr, ptr %76, align 8
  %78 = getelementptr inbounds nuw i8, ptr %0, i64 136
  tail call void @uv__io_start(ptr noundef %77, ptr noundef nonnull %78, i32 noundef 4) #12
  br label %.loopexit

79:                                               ; preds = %71
  %80 = getelementptr inbounds nuw i8, ptr %6, i64 36
  store i32 %19, ptr %80, align 4
  %81 = getelementptr inbounds i8, ptr %6, i64 -8
  %82 = load ptr, ptr %81, align 8
  %83 = load ptr, ptr %6, align 8
  %84 = getelementptr inbounds nuw i8, ptr %6, i64 8
  %85 = load ptr, ptr %84, align 8
  store ptr %83, ptr %85, align 8
  %86 = load ptr, ptr %84, align 8
  %87 = getelementptr inbounds nuw i8, ptr %83, i64 8
  store ptr %86, ptr %87, align 8
  %88 = load i32, ptr %80, align 4
  %89 = icmp eq i32 %88, 0
  br i1 %89, label %90, label %uv__write_req_finish.exit32

90:                                               ; preds = %79
  %91 = load ptr, ptr %8, align 8
  %92 = getelementptr inbounds nuw i8, ptr %6, i64 40
  %.not.i31 = icmp eq ptr %91, %92
  br i1 %.not.i31, label %94, label %93

93:                                               ; preds = %90
  tail call void @uv__free(ptr noundef %91) #12
  br label %94

94:                                               ; preds = %93, %90
  store ptr null, ptr %8, align 8
  br label %uv__write_req_finish.exit32

uv__write_req_finish.exit32:                      ; preds = %79, %94
  %95 = getelementptr inbounds nuw i8, ptr %82, i64 208
  store ptr %95, ptr %6, align 8
  %96 = getelementptr inbounds nuw i8, ptr %82, i64 216
  %97 = load ptr, ptr %96, align 8
  store ptr %97, ptr %84, align 8
  store ptr %6, ptr %97, align 8
  store ptr %6, ptr %96, align 8
  %98 = getelementptr inbounds nuw i8, ptr %82, i64 8
  %99 = load ptr, ptr %98, align 8
  %100 = getelementptr inbounds nuw i8, ptr %82, i64 136
  tail call void @uv__io_feed(ptr noundef %99, ptr noundef nonnull %100) #12
  %101 = getelementptr inbounds nuw i8, ptr %0, i64 8
  %102 = load ptr, ptr %101, align 8
  %103 = getelementptr inbounds nuw i8, ptr %0, i64 136
  tail call void @uv__io_stop(ptr noundef %102, ptr noundef nonnull %103, i32 noundef 4) #12
  br label %.loopexit

.loopexit:                                        ; preds = %uv__write_req_finish.exit, %5, %uv__write_req_finish.exit32, %75
  ret void
}